target datalayout = "e-m:e-p270:32:32-p271:32:32-p272:64:64-i64:64-i128:128-f80:128-n8:16:32:64-S128"
target triple = "x86_64-pc-linux-gnu"

; Function Attrs: mustprogress nounwind uwtable
define dso_local noundef i64 @_ZN11StringUtils13find_any_charERKNSt7__cxx1112basic_stringIcSt11char_traitsIcESaIcEEEmS7_(ptr noundef nonnull align 8 dereferenceable(32) %0, i64 noundef %1, ptr noundef nonnull align 8 dereferenceable(32) %2) #4 align 2 {
  %4 = alloca i64, align 8
  %5 = alloca ptr, align 8
  %6 = alloca i64, align 8
  %7 = alloca ptr, align 8
  %8 = alloca i64, align 8
  store ptr %0, ptr %5, align 8
  store i64 %1, ptr %6, align 8
  store ptr %2, ptr %7, align 8
  %9 = load ptr, ptr %5, align 8
  %10 = call noundef zeroext i1 @_ZNKSt7__cxx1112basic_stringIcSt11char_traitsIcESaIcEE5emptyEv(ptr noundef nonnull align 8 dereferenceable(32) %9) #3
  br i1 %10, label %14, label %11

11:                                               ; preds = %3
  %12 = load ptr, ptr %7, align 8
  %13 = call noundef zeroext i1 @_ZNKSt7__cxx1112basic_stringIcSt11char_traitsIcESaIcEE5emptyEv(ptr noundef nonnull align 8 dereferenceable(32) %12) #3
  br i1 %13, label %14, label %15

14:                                               ; preds = %11, %3
  store i64 -1, ptr %4, align 8
  br label %37

15:                                               ; preds = %11
  %16 = load i64, ptr %6, align 8
  store i64 %16, ptr %8, align 8
  br label %17

17:                                               ; preds = %33, %15
  %18 = load i64, ptr %8, align 8
  %19 = load ptr, ptr %5, align 8
  %20 = call noundef i64 @_ZNKSt7__cxx1112basic_stringIcSt11char_traitsIcESaIcEE6lengthEv(ptr noundef nonnull align 8 dereferenceable(32) %19) #3
  %21 = icmp ult i64 %18, %20
  br i1 %21, label %22, label %36

22:                                               ; preds = %17
  %23 = load ptr, ptr %7, align 8
  %24 = load ptr, ptr %5, align 8
  %25 = load i64, ptr %8, align 8
  %26 = call noundef nonnull align 1 dereferenceable(1) ptr @_ZNKSt7__cxx1112basic_stringIcSt11char_traitsIcESaIcEEixEm(ptr noundef nonnull align 8 dereferenceable(32) %24, i64 noundef %25) #3
  %27 = load i8, ptr %26, align 1
  %28 = call noundef i64 @_ZNKSt7__cxx1112basic_stringIcSt11char_traitsIcESaIcEE4findEcm(ptr noundef nonnull align 8 dereferenceable(32) %23, i8 noundef signext %27, i64 noundef 0) #3
  %29 = icmp ne i64 %28, -1
  br i1 %29, label %30, label %32

30:                                               ; preds = %22
  %31 = load i64, ptr %8, align 8
  store i64 %31, ptr %4, align 8
  br label %37

32:                                               ; preds = %22
  br label %33

33:                                               ; preds = %32
  %34 = load i64, ptr %8, align 8
  %35 = add i64 %34, 1
  store i64 %35, ptr %8, align 8
  br label %17, !llvm.loop !7

36:                                               ; preds = %17
  store i64 -1, ptr %4, align 8
  br label %37

37:                                               ; preds = %36, %30, %14
  %38 = load i64, ptr %4, align 8
  ret i64 %38
}