; Function Attrs: mustprogress nounwind uwtable
define dso_local noundef i64 @_ZN11StringUtils13find_any_charERKNSt7__cxx1112basic_stringIcSt11char_traitsIcESaIcEEEmS7_(ptr noundef nonnull align 8 dereferenceable(32) %0, i64 noundef %1, ptr noundef nonnull align 8 dereferenceable(32) %2) local_unnamed_addr #3 align 2 {
  %4 = tail call noundef zeroext i1 @_ZNKSt7__cxx1112basic_stringIcSt11char_traitsIcESaIcEE5emptyEv(ptr noundef nonnull align 8 dereferenceable(32) %0) #18
  br i1 %4, label %.loopexit, label %5

5:                                                ; preds = %3
  %6 = tail call noundef zeroext i1 @_ZNKSt7__cxx1112basic_stringIcSt11char_traitsIcESaIcEE5emptyEv(ptr noundef nonnull align 8 dereferenceable(32) %2) #18
  br i1 %6, label %.loopexit, label %.preheader

.preheader:                                       ; preds = %5
  %7 = tail call noundef i64 @_ZNKSt7__cxx1112basic_stringIcSt11char_traitsIcESaIcEE6lengthEv(ptr noundef nonnull align 8 dereferenceable(32) %0) #18
  %8 = icmp ult i64 %1, %7
  br i1 %8, label %.lr.ph, label %.loopexit

.lr.ph:                                           ; preds = %.preheader, %12
  %.011 = phi i64 [ %13, %12 ], [ %1, %.preheader ]
  %9 = tail call noundef nonnull align 1 dereferenceable(1) ptr @_ZNKSt7__cxx1112basic_stringIcSt11char_traitsIcESaIcEEixEm(ptr noundef nonnull align 8 dereferenceable(32) %0, i64 noundef %.011) #18
  %10 = load i8, ptr %9, align 1
  %11 = tail call noundef i64 @_ZNKSt7__cxx1112basic_stringIcSt11char_traitsIcESaIcEE4findEcm(ptr noundef nonnull align 8 dereferenceable(32) %2, i8 noundef signext %10, i64 noundef 0) #18
  %.not = icmp eq i64 %11, -1
  br i1 %.not, label %12, label %.loopexit

12:                                               ; preds = %.lr.ph
  %13 = add nuw i64 %.011, 1
  %14 = tail call noundef i64 @_ZNKSt7__cxx1112basic_stringIcSt11char_traitsIcESaIcEE6lengthEv(ptr noundef nonnull align 8 dereferenceable(32) %0) #18
  %15 = icmp ult i64 %13, %14
  br i1 %15, label %.lr.ph, label %.loopexit, !llvm.loop !10

.loopexit:                                        ; preds = %.lr.ph, %12, %.preheader, %3, %5
  %.010 = phi i64 [ -1, %5 ], [ -1, %3 ], [ -1, %.preheader ], [ %.011, %.lr.ph ], [ -1, %12 ]
  ret i64 %.010
}